; ModuleID = 'source-C-CXX/6/24.c'
source_filename = "source-C-CXX/6/24.c"
target datalayout = "e-m:e-p270:32:32-p271:32:32-p272:64:64-i64:64-f80:128-n8:16:32:64-S128"
target triple = "x86_64-pc-linux-gnu"

; Function Attrs: nounwind sspstrong uwtable
define dso_local void @main() local_unnamed_addr #0 {
  %1 = alloca [100 x i8], align 16
  %2 = alloca [100 x i8], align 16
  %3 = alloca [100 x i8], align 16
  %4 = getelementptr inbounds [100 x i8], [100 x i8]* %3, i64 0, i64 0
  %5 = getelementptr inbounds [100 x i8], [100 x i8]* %1, i64 0, i64 0
  call void @llvm.lifetime.start.p0i8(i64 100, i8* nonnull %5) #6
  %6 = getelementptr inbounds [100 x i8], [100 x i8]* %2, i64 0, i64 0
  call void @llvm.lifetime.start.p0i8(i64 100, i8* nonnull %6) #6
  %7 = getelementptr inbounds [100 x i8], [100 x i8]* %3, i64 0, i64 0
  call void @llvm.lifetime.start.p0i8(i64 100, i8* nonnull %7) #6
  %8 = call i32 (i8*, ...) bitcast (i32 (...)* @gets to i32 (i8*, ...)*)(i8* nonnull %5) #6
  %9 = call i32 (i8*, ...) bitcast (i32 (...)* @gets to i32 (i8*, ...)*)(i8* nonnull %6) #6
  %10 = call i32 (i8*, ...) bitcast (i32 (...)* @gets to i32 (i8*, ...)*)(i8* nonnull %7) #6
  %11 = call i64 @strlen(i8* noundef nonnull %5) #7
  %12 = trunc i64 %11 to i32
  %13 = call i64 @strlen(i8* noundef nonnull %6) #7
  %14 = icmp sgt i32 %12, 0
  br i1 %14, label %15, label %60

15:                                               ; preds = %0
  %16 = trunc i64 %13 to i32
  %17 = icmp sgt i32 %16, 0
  br i1 %17, label %18, label %50

18:                                               ; preds = %15
  %19 = and i64 %13, 4294967295
  br label %20

20:                                               ; preds = %18, %31
  %21 = phi i32 [ %33, %31 ], [ 0, %18 ]
  %22 = sext i32 %21 to i64
  br label %23

23:                                               ; preds = %20, %35
  %24 = phi i64 [ 0, %20 ], [ %36, %35 ]
  %25 = phi i64 [ %22, %20 ], [ %37, %35 ]
  %26 = getelementptr inbounds [100 x i8], [100 x i8]* %1, i64 0, i64 %25
  %27 = load i8, i8* %26, align 1, !tbaa !5
  %28 = getelementptr inbounds [100 x i8], [100 x i8]* %2, i64 0, i64 %24
  %29 = load i8, i8* %28, align 1, !tbaa !5
  %30 = icmp eq i8 %27, %29
  br i1 %30, label %35, label %31

31:                                               ; preds = %23
  %32 = trunc i64 %25 to i32
  %33 = add nsw i32 %32, 1
  %34 = icmp slt i32 %33, %12
  br i1 %34, label %20, label %49, !llvm.loop !8

35:                                               ; preds = %23
  %36 = add nuw nsw i64 %24, 1
  %37 = add nsw i64 %25, 1
  %38 = icmp eq i64 %36, %19
  br i1 %38, label %39, label %23, !llvm.loop !10

39:                                               ; preds = %35
  br i1 %17, label %40, label %49

40:                                               ; preds = %39
  %41 = add i64 %13, %22
  %42 = shl i64 %41, 32
  %43 = ashr exact i64 %42, 32
  %44 = shl i64 %13, 32
  %45 = ashr exact i64 %44, 32
  %46 = sub nsw i64 %43, %45
  %47 = getelementptr [100 x i8], [100 x i8]* %1, i64 0, i64 %46
  %48 = and i64 %13, 4294967295
  call void @llvm.memcpy.p0i8.p0i8.i64(i8* align 1 %47, i8* nonnull align 16 %4, i64 %48, i1 false)
  br label %49

49:                                               ; preds = %31, %40, %39
  br i1 %14, label %50, label %60

50:                                               ; preds = %15, %49
  %51 = and i64 %11, 4294967295
  br label %52

52:                                               ; preds = %50, %52
  %53 = phi i64 [ 0, %50 ], [ %58, %52 ]
  %54 = getelementptr inbounds [100 x i8], [100 x i8]* %1, i64 0, i64 %53
  %55 = load i8, i8* %54, align 1, !tbaa !5
  %56 = sext i8 %55 to i32
  %57 = call i32 @putchar(i32 %56)
  %58 = add nuw nsw i64 %53, 1
  %59 = icmp eq i64 %58, %51
  br i1 %59, label %60, label %52, !llvm.loop !11

60:                                               ; preds = %52, %0, %49
  call void @llvm.lifetime.end.p0i8(i64 100, i8* nonnull %7) #6
  call void @llvm.lifetime.end.p0i8(i64 100, i8* nonnull %6) #6
  call void @llvm.lifetime.end.p0i8(i64 100, i8* nonnull %5) #6
  ret void
}

; Function Attrs: argmemonly mustprogress nofree nosync nounwind willreturn
declare void @llvm.lifetime.start.p0i8(i64 immarg, i8* nocapture) #1

declare i32 @gets(...) local_unnamed_addr #2

; Function Attrs: argmemonly mustprogress nofree nounwind readonly willreturn
declare i64 @strlen(i8* nocapture) local_unnamed_addr #3

; Function Attrs: argmemonly mustprogress nofree nosync nounwind willreturn
declare void @llvm.lifetime.end.p0i8(i64 immarg, i8* nocapture) #1

; Function Attrs: nofree nounwind
declare noundef i32 @putchar(i32 noundef) local_unnamed_addr #4

; Function Attrs: argmemonly nofree nounwind willreturn
declare void @llvm.memcpy.p0i8.p0i8.i64(i8* noalias nocapture writeonly, i8* noalias nocapture readonly, i64, i1 immarg) #5


!llvm.module.flags = !{!0, !1, !2, !3}
!llvm.ident = !{!4}

!0 = !{i32 1, !"wchar_size", i32 4}
!1 = !{i32 7, !"PIC Level", i32 2}
!2 = !{i32 7, !"PIE Level", i32 2}
!3 = !{i32 7, !"uwtable", i32 1}
!4 = !{!"clang version 13.0.0"}
!5 = !{!6, !6, i64 0}
!6 = !{!"omnipotent char", !7, i64 0}
!7 = !{!"Simple C/C++ TBAA"}
!8 = distinct !{!8, !9}
!9 = !{!"llvm.loop.mustprogress"}
!10 = distinct !{!10, !9}
!11 = distinct !{!11, !9}
